; Function Attrs: mustprogress nofree norecurse nosync nounwind willreturn memory(argmem: readwrite) uwtable
define void @_ZN8QuantLib16BSMRNDCalculatorC2EN5boost10shared_ptrINS_30GeneralizedBlackScholesProcessEEE(ptr nocapture noundef nonnull writeonly align 8 dereferenceable(24) %this, ptr nocapture noundef %process) unnamed_addr #8 align 2 {
entry:
  store ptr getelementptr inbounds inrange(-16, 40) (i8, ptr @_ZTVN8QuantLib16BSMRNDCalculatorE, i64 16), ptr %this, align 8, !tbaa !14
  %process_ = getelementptr inbounds nuw i8, ptr %this, i64 8
  %0 = load ptr, ptr %process, align 8, !tbaa !18
  store ptr %0, ptr %process_, align 8, !tbaa !18
  %pn.i = getelementptr inbounds nuw i8, ptr %this, i64 16
  %pn3.i = getelementptr inbounds nuw i8, ptr %process, i64 8
  %1 = load ptr, ptr %pn3.i, align 8, !tbaa !16
  store ptr %1, ptr %pn.i, align 8, !tbaa !16
  tail call void @llvm.memset.p0.i64(ptr noundef nonnull align 8 dereferenceable(16) %process, i8 0, i64 16, i1 false)
  ret void
}